target datalayout = "e-m:e-p270:32:32-p271:32:32-p272:64:64-i64:64-i128:128-f80:128-n8:16:32:64-S128"
target triple = "x86_64-pc-linux-gnu"

@.str = private unnamed_addr constant [33 x i8] c"\0AERROR - %s line %d failed with:\00", align 1
@.str.1 = private unnamed_addr constant [105 x i8] c"generated/home/dtcxzyw/WorkSpace/Projects/compilers/llvm-opt-benchmark/bench/wolfssl/wolfssl/tests/api.c\00", align 1
@.str.2 = private unnamed_addr constant [16 x i8] c"\0A    expected: \00", align 1
@stdout = external global ptr, align 8
@.str.3 = private unnamed_addr constant [9 x i8] c"%s == %s\00", align 1
@.str.6 = private unnamed_addr constant [16 x i8] c"\0A    result:   \00", align 1
@.str.7 = private unnamed_addr constant [9 x i8] c"%d != %d\00", align 1
@.str.8 = private unnamed_addr constant [3 x i8] c"\0A\0A\00", align 1
@.str.985 = private unnamed_addr constant [24 x i8] c"./certs/client-cert.pem\00", align 1
@.str.989 = private unnamed_addr constant [15 x i8] c"%s is not null\00", align 1
@.str.993 = private unnamed_addr constant [16 x i8] c"WOLFSSL_SUCCESS\00", align 1
@.str.1707 = private unnamed_addr constant [50 x i8] c"ctx = wolfSSL_CTX_new(wolfSSLv23_client_method())\00", align 1
@.str.1708 = private unnamed_addr constant [58 x i8] c"ctx = wolfSSL_CTX_new(wolfSSLv23_client_method()) => NULL\00", align 1
@.str.1926 = private unnamed_addr constant [30 x i8] c"./certs/server-cert-chain.der\00", align 1
@.str.1927 = private unnamed_addr constant [92 x i8] c"wolfSSL_CTX_use_certificate_chain_file_format(ctx, server_chain_der, WOLFSSL_FILETYPE_ASN1)\00", align 1
@.str.1928 = private unnamed_addr constant [92 x i8] c"wolfSSL_CTX_use_certificate_chain_file_format(ctx, client_single_pem, WOLFSSL_FILETYPE_PEM)\00", align 1

; Function Attrs: nounwind uwtable
define internal i32 @test_wolfSSL_CTX_use_certificate_chain_file_format() #0 {
  %1 = alloca i32, align 4
  %2 = alloca i32, align 4
  %3 = alloca ptr, align 8
  %4 = alloca ptr, align 8
  %5 = alloca ptr, align 8
  %6 = alloca i32, align 4
  %7 = alloca i32, align 4
  %8 = alloca i32, align 4
  %9 = alloca i32, align 4
  call void @llvm.lifetime.start.p0(i64 4, ptr %1) #14
  store i32 3, ptr %1, align 4, !tbaa !10
  call void @llvm.lifetime.start.p0(i64 4, ptr %2) #14
  store i32 0, ptr %2, align 4, !tbaa !10
  call void @llvm.lifetime.start.p0(i64 8, ptr %3) #14
  store ptr @.str.1926, ptr %3, align 8, !tbaa !32
  call void @llvm.lifetime.start.p0(i64 8, ptr %4) #14
  store ptr @.str.985, ptr %4, align 8, !tbaa !32
  call void @llvm.lifetime.start.p0(i64 8, ptr %5) #14
  store ptr null, ptr %5, align 8, !tbaa !84
  br label %10

10:                                               ; preds = %0
  %11 = load i32, ptr %1, align 4, !tbaa !10
  %12 = icmp eq i32 %11, 1
  br i1 %12, label %22, label %13

13:                                               ; preds = %10
  %14 = load i32, ptr %1, align 4, !tbaa !10
  %15 = icmp eq i32 %14, 3
  br i1 %15, label %22, label %16

16:                                               ; preds = %13
  %17 = load i32, ptr %1, align 4, !tbaa !10
  %18 = icmp eq i32 %17, 2
  br i1 %18, label %22, label %19

19:                                               ; preds = %16
  %20 = load i32, ptr %1, align 4, !tbaa !10
  %21 = icmp eq i32 %20, 4
  br i1 %21, label %22, label %57

22:                                               ; preds = %19, %16, %13, %10
  %23 = call ptr @wolfSSLv23_client_method()
  %24 = call ptr @wolfSSL_CTX_new(ptr noundef %23)
  store ptr %24, ptr %5, align 8, !tbaa !84
  %25 = icmp ne ptr %24, null
  br i1 %25, label %50, label %26

26:                                               ; preds = %22
  br label %27

27:                                               ; preds = %26
  %28 = load i32, ptr %1, align 4, !tbaa !10
  %29 = icmp eq i32 %28, 2
  br i1 %29, label %33, label %30

30:                                               ; preds = %27
  %31 = load i32, ptr %1, align 4, !tbaa !10
  %32 = icmp eq i32 %31, 4
  br i1 %32, label %33, label %35

33:                                               ; preds = %30, %27
  %34 = load i32, ptr %2, align 4, !tbaa !10
  store i32 %34, ptr %1, align 4, !tbaa !10
  br label %47

35:                                               ; preds = %30
  %36 = call i32 (ptr, ...) @printf(ptr noundef @.str, ptr noundef @.str.1, i32 noundef 5074)
  %37 = load ptr, ptr @stdout, align 8, !tbaa !22
  %38 = call i32 @fputs(ptr noundef @.str.2, ptr noundef %37)
  %39 = call i32 (ptr, ...) @printf(ptr noundef @.str.989, ptr noundef @.str.1707)
  %40 = load ptr, ptr @stdout, align 8, !tbaa !22
  %41 = call i32 @fputs(ptr noundef @.str.6, ptr noundef %40)
  %42 = call i32 (ptr, ...) @printf(ptr noundef @.str.1708)
  %43 = load ptr, ptr @stdout, align 8, !tbaa !22
  %44 = call i32 @fputs(ptr noundef @.str.8, ptr noundef %43)
  %45 = load ptr, ptr @stdout, align 8, !tbaa !22
  %46 = call i32 @fflush(ptr noundef %45)
  store i32 0, ptr %1, align 4, !tbaa !10
  br label %47

47:                                               ; preds = %35, %33
  br label %48

48:                                               ; preds = %47
  br label %49

49:                                               ; preds = %48
  br label %56

50:                                               ; preds = %22
  %51 = load i32, ptr %1, align 4, !tbaa !10
  %52 = icmp eq i32 %51, 4
  br i1 %52, label %53, label %54

53:                                               ; preds = %50
  store i32 2, ptr %1, align 4, !tbaa !10
  br label %55

54:                                               ; preds = %50
  store i32 1, ptr %1, align 4, !tbaa !10
  br label %55

55:                                               ; preds = %54, %53
  br label %56

56:                                               ; preds = %55, %49
  br label %57

57:                                               ; preds = %56, %19
  %58 = load i32, ptr %1, align 4, !tbaa !10
  %59 = icmp eq i32 %58, 2
  br i1 %59, label %60, label %63

60:                                               ; preds = %57
  %61 = load i32, ptr %2, align 4, !tbaa !10
  %62 = add nsw i32 %61, -1
  store i32 %62, ptr %2, align 4, !tbaa !10
  br label %63

63:                                               ; preds = %60, %57
  br label %64

64:                                               ; preds = %63
  br label %65

65:                                               ; preds = %64
  br label %66

66:                                               ; preds = %65
  %67 = load i32, ptr %1, align 4, !tbaa !10
  %68 = icmp eq i32 %67, 1
  br i1 %68, label %78, label %69

69:                                               ; preds = %66
  %70 = load i32, ptr %1, align 4, !tbaa !10
  %71 = icmp eq i32 %70, 3
  br i1 %71, label %78, label %72

72:                                               ; preds = %69
  %73 = load i32, ptr %1, align 4, !tbaa !10
  %74 = icmp eq i32 %73, 2
  br i1 %74, label %78, label %75

75:                                               ; preds = %72
  %76 = load i32, ptr %1, align 4, !tbaa !10
  %77 = icmp eq i32 %76, 4
  br i1 %77, label %78, label %140

78:                                               ; preds = %75, %72, %69, %66
  call void @llvm.lifetime.start.p0(i64 4, ptr %6) #14
  %79 = load ptr, ptr %5, align 8, !tbaa !84
  %80 = load ptr, ptr %3, align 8, !tbaa !32
  %81 = call i32 @wolfSSL_CTX_use_certificate_chain_file_format(ptr noundef %79, ptr noundef %80, i32 noundef 2)
  store i32 %81, ptr %6, align 4, !tbaa !10
  call void @llvm.lifetime.start.p0(i64 4, ptr %7) #14
  store i32 1, ptr %7, align 4, !tbaa !10
  br label %82

82:                                               ; preds = %78
  %83 = load i32, ptr %1, align 4, !tbaa !10
  %84 = icmp eq i32 %83, 1
  br i1 %84, label %94, label %85

85:                                               ; preds = %82
  %86 = load i32, ptr %1, align 4, !tbaa !10
  %87 = icmp eq i32 %86, 3
  br i1 %87, label %94, label %88

88:                                               ; preds = %85
  %89 = load i32, ptr %1, align 4, !tbaa !10
  %90 = icmp eq i32 %89, 2
  br i1 %90, label %94, label %91

91:                                               ; preds = %88
  %92 = load i32, ptr %1, align 4, !tbaa !10
  %93 = icmp eq i32 %92, 4
  br i1 %93, label %94, label %131

94:                                               ; preds = %91, %88, %85, %82
  %95 = load i32, ptr %6, align 4, !tbaa !10
  %96 = load i32, ptr %7, align 4, !tbaa !10
  %97 = icmp eq i32 %95, %96
  br i1 %97, label %124, label %98

98:                                               ; preds = %94
  br label %99

99:                                               ; preds = %98
  %100 = load i32, ptr %1, align 4, !tbaa !10
  %101 = icmp eq i32 %100, 2
  br i1 %101, label %105, label %102

102:                                              ; preds = %99
  %103 = load i32, ptr %1, align 4, !tbaa !10
  %104 = icmp eq i32 %103, 4
  br i1 %104, label %105, label %107

105:                                              ; preds = %102, %99
  %106 = load i32, ptr %2, align 4, !tbaa !10
  store i32 %106, ptr %1, align 4, !tbaa !10
  br label %121

107:                                              ; preds = %102
  %108 = call i32 (ptr, ...) @printf(ptr noundef @.str, ptr noundef @.str.1, i32 noundef 5080)
  %109 = load ptr, ptr @stdout, align 8, !tbaa !22
  %110 = call i32 @fputs(ptr noundef @.str.2, ptr noundef %109)
  %111 = call i32 (ptr, ...) @printf(ptr noundef @.str.3, ptr noundef @.str.1927, ptr noundef @.str.993)
  %112 = load ptr, ptr @stdout, align 8, !tbaa !22
  %113 = call i32 @fputs(ptr noundef @.str.6, ptr noundef %112)
  %114 = load i32, ptr %6, align 4, !tbaa !10
  %115 = load i32, ptr %7, align 4, !tbaa !10
  %116 = call i32 (ptr, ...) @printf(ptr noundef @.str.7, i32 noundef %114, i32 noundef %115)
  %117 = load ptr, ptr @stdout, align 8, !tbaa !22
  %118 = call i32 @fputs(ptr noundef @.str.8, ptr noundef %117)
  %119 = load ptr, ptr @stdout, align 8, !tbaa !22
  %120 = call i32 @fflush(ptr noundef %119)
  store i32 0, ptr %1, align 4, !tbaa !10
  br label %121

121:                                              ; preds = %107, %105
  br label %122

122:                                              ; preds = %121
  br label %123

123:                                              ; preds = %122
  br label %130

124:                                              ; preds = %94
  %125 = load i32, ptr %1, align 4, !tbaa !10
  %126 = icmp eq i32 %125, 4
  br i1 %126, label %127, label %128

127:                                              ; preds = %124
  store i32 2, ptr %1, align 4, !tbaa !10
  br label %129

128:                                              ; preds = %124
  store i32 1, ptr %1, align 4, !tbaa !10
  br label %129

129:                                              ; preds = %128, %127
  br label %130

130:                                              ; preds = %129, %123
  br label %131

131:                                              ; preds = %130, %91
  %132 = load i32, ptr %1, align 4, !tbaa !10
  %133 = icmp eq i32 %132, 2
  br i1 %133, label %134, label %137

134:                                              ; preds = %131
  %135 = load i32, ptr %2, align 4, !tbaa !10
  %136 = add nsw i32 %135, -1
  store i32 %136, ptr %2, align 4, !tbaa !10
  br label %137

137:                                              ; preds = %134, %131
  br label %138

138:                                              ; preds = %137
  br label %139

139:                                              ; preds = %138
  call void @llvm.lifetime.end.p0(i64 4, ptr %7) #14
  call void @llvm.lifetime.end.p0(i64 4, ptr %6) #14
  br label %140

140:                                              ; preds = %139, %75
  br label %141

141:                                              ; preds = %140
  br label %142

142:                                              ; preds = %141
  br label %143

143:                                              ; preds = %142
  %144 = load i32, ptr %1, align 4, !tbaa !10
  %145 = icmp eq i32 %144, 1
  br i1 %145, label %155, label %146

146:                                              ; preds = %143
  %147 = load i32, ptr %1, align 4, !tbaa !10
  %148 = icmp eq i32 %147, 3
  br i1 %148, label %155, label %149

149:                                              ; preds = %146
  %150 = load i32, ptr %1, align 4, !tbaa !10
  %151 = icmp eq i32 %150, 2
  br i1 %151, label %155, label %152

152:                                              ; preds = %149
  %153 = load i32, ptr %1, align 4, !tbaa !10
  %154 = icmp eq i32 %153, 4
  br i1 %154, label %155, label %217

155:                                              ; preds = %152, %149, %146, %143
  call void @llvm.lifetime.start.p0(i64 4, ptr %8) #14
  %156 = load ptr, ptr %5, align 8, !tbaa !84
  %157 = load ptr, ptr %4, align 8, !tbaa !32
  %158 = call i32 @wolfSSL_CTX_use_certificate_chain_file_format(ptr noundef %156, ptr noundef %157, i32 noundef 1)
  store i32 %158, ptr %8, align 4, !tbaa !10
  call void @llvm.lifetime.start.p0(i64 4, ptr %9) #14
  store i32 1, ptr %9, align 4, !tbaa !10
  br label %159

159:                                              ; preds = %155
  %160 = load i32, ptr %1, align 4, !tbaa !10
  %161 = icmp eq i32 %160, 1
  br i1 %161, label %171, label %162

162:                                              ; preds = %159
  %163 = load i32, ptr %1, align 4, !tbaa !10
  %164 = icmp eq i32 %163, 3
  br i1 %164, label %171, label %165

165:                                              ; preds = %162
  %166 = load i32, ptr %1, align 4, !tbaa !10
  %167 = icmp eq i32 %166, 2
  br i1 %167, label %171, label %168

168:                                              ; preds = %165
  %169 = load i32, ptr %1, align 4, !tbaa !10
  %170 = icmp eq i32 %169, 4
  br i1 %170, label %171, label %208

171:                                              ; preds = %168, %165, %162, %159
  %172 = load i32, ptr %8, align 4, !tbaa !10
  %173 = load i32, ptr %9, align 4, !tbaa !10
  %174 = icmp eq i32 %172, %173
  br i1 %174, label %201, label %175

175:                                              ; preds = %171
  br label %176

176:                                              ; preds = %175
  %177 = load i32, ptr %1, align 4, !tbaa !10
  %178 = icmp eq i32 %177, 2
  br i1 %178, label %182, label %179

179:                                              ; preds = %176
  %180 = load i32, ptr %1, align 4, !tbaa !10
  %181 = icmp eq i32 %180, 4
  br i1 %181, label %182, label %184

182:                                              ; preds = %179, %176
  %183 = load i32, ptr %2, align 4, !tbaa !10
  store i32 %183, ptr %1, align 4, !tbaa !10
  br label %198

184:                                              ; preds = %179
  %185 = call i32 (ptr, ...) @printf(ptr noundef @.str, ptr noundef @.str.1, i32 noundef 5082)
  %186 = load ptr, ptr @stdout, align 8, !tbaa !22
  %187 = call i32 @fputs(ptr noundef @.str.2, ptr noundef %186)
  %188 = call i32 (ptr, ...) @printf(ptr noundef @.str.3, ptr noundef @.str.1928, ptr noundef @.str.993)
  %189 = load ptr, ptr @stdout, align 8, !tbaa !22
  %190 = call i32 @fputs(ptr noundef @.str.6, ptr noundef %189)
  %191 = load i32, ptr %8, align 4, !tbaa !10
  %192 = load i32, ptr %9, align 4, !tbaa !10
  %193 = call i32 (ptr, ...) @printf(ptr noundef @.str.7, i32 noundef %191, i32 noundef %192)
  %194 = load ptr, ptr @stdout, align 8, !tbaa !22
  %195 = call i32 @fputs(ptr noundef @.str.8, ptr noundef %194)
  %196 = load ptr, ptr @stdout, align 8, !tbaa !22
  %197 = call i32 @fflush(ptr noundef %196)
  store i32 0, ptr %1, align 4, !tbaa !10
  br label %198

198:                                              ; preds = %184, %182
  br label %199

199:                                              ; preds = %198
  br label %200

200:                                              ; preds = %199
  br label %207

201:                                              ; preds = %171
  %202 = load i32, ptr %1, align 4, !tbaa !10
  %203 = icmp eq i32 %202, 4
  br i1 %203, label %204, label %205

204:                                              ; preds = %201
  store i32 2, ptr %1, align 4, !tbaa !10
  br label %206

205:                                              ; preds = %201
  store i32 1, ptr %1, align 4, !tbaa !10
  br label %206

206:                                              ; preds = %205, %204
  br label %207

207:                                              ; preds = %206, %200
  br label %208

208:                                              ; preds = %207, %168
  %209 = load i32, ptr %1, align 4, !tbaa !10
  %210 = icmp eq i32 %209, 2
  br i1 %210, label %211, label %214

211:                                              ; preds = %208
  %212 = load i32, ptr %2, align 4, !tbaa !10
  %213 = add nsw i32 %212, -1
  store i32 %213, ptr %2, align 4, !tbaa !10
  br label %214

214:                                              ; preds = %211, %208
  br label %215

215:                                              ; preds = %214
  br label %216

216:                                              ; preds = %215
  call void @llvm.lifetime.end.p0(i64 4, ptr %9) #14
  call void @llvm.lifetime.end.p0(i64 4, ptr %8) #14
  br label %217

217:                                              ; preds = %216, %152
  br label %218

218:                                              ; preds = %217
  br label %219

219:                                              ; preds = %218
  %220 = load ptr, ptr %5, align 8, !tbaa !84
  call void @wolfSSL_CTX_free(ptr noundef %220)
  %221 = load i32, ptr %1, align 4, !tbaa !10
  %222 = icmp eq i32 %221, 2
  br i1 %222, label %223, label %224

223:                                              ; preds = %219
  br label %232

224:                                              ; preds = %219
  %225 = load i32, ptr %1, align 4, !tbaa !10
  %226 = icmp eq i32 %225, 4
  br i1 %226, label %227, label %228

227:                                              ; preds = %224
  br label %230

228:                                              ; preds = %224
  %229 = load i32, ptr %1, align 4, !tbaa !10
  br label %230

230:                                              ; preds = %228, %227
  %231 = phi i32 [ 3, %227 ], [ %229, %228 ]
  br label %232

232:                                              ; preds = %230, %223
  %233 = phi i32 [ 1, %223 ], [ %231, %230 ]
  call void @llvm.lifetime.end.p0(i64 8, ptr %5) #14
  call void @llvm.lifetime.end.p0(i64 8, ptr %4) #14
  call void @llvm.lifetime.end.p0(i64 8, ptr %3) #14
  call void @llvm.lifetime.end.p0(i64 4, ptr %2) #14
  call void @llvm.lifetime.end.p0(i64 4, ptr %1) #14
  ret i32 %233
}