; Function Attrs: nounwind uwtable
define internal range(i32 0, 2) i32 @test_wolfSSL_CTX_use_certificate_chain_file_format() #0 {
  %1 = tail call ptr @wolfSSLv23_client_method() #27
  %2 = tail call ptr @wolfSSL_CTX_new(ptr noundef %1) #27
  %.not.not = icmp eq ptr %2, null
  br i1 %.not.not, label %.thread, label %10

.thread:                                          ; preds = %0
  %3 = tail call i32 (ptr, ...) @printf(ptr noundef nonnull dereferenceable(1) @.str, ptr noundef nonnull @.str.1, i32 noundef 5074)
  %4 = load ptr, ptr @stdout, align 8, !tbaa !22
  %5 = tail call i64 @fwrite(ptr nonnull @.str.2, i64 15, i64 1, ptr %4)
  %6 = tail call i32 (ptr, ...) @printf(ptr noundef nonnull dereferenceable(1) @.str.989, ptr noundef nonnull @.str.1707)
  %7 = load ptr, ptr @stdout, align 8, !tbaa !22
  %8 = tail call i64 @fwrite(ptr nonnull @.str.6, i64 15, i64 1, ptr %7)
  %9 = tail call i32 (ptr, ...) @printf(ptr noundef nonnull dereferenceable(1) @.str.1708)
  br label %.thread99.sink.split

10:                                               ; preds = %0
  %11 = tail call i32 @wolfSSL_CTX_use_certificate_chain_file_format(ptr noundef nonnull %2, ptr noundef nonnull @.str.1926, i32 noundef 2) #27
  %12 = icmp eq i32 %11, 1
  br i1 %12, label %21, label %13

13:                                               ; preds = %10
  %14 = tail call i32 (ptr, ...) @printf(ptr noundef nonnull dereferenceable(1) @.str, ptr noundef nonnull @.str.1, i32 noundef 5080)
  %15 = load ptr, ptr @stdout, align 8, !tbaa !22
  %16 = tail call i64 @fwrite(ptr nonnull @.str.2, i64 15, i64 1, ptr %15)
  %17 = tail call i32 (ptr, ...) @printf(ptr noundef nonnull dereferenceable(1) @.str.3, ptr noundef nonnull @.str.1927, ptr noundef nonnull @.str.993)
  %18 = load ptr, ptr @stdout, align 8, !tbaa !22
  %19 = tail call i64 @fwrite(ptr nonnull @.str.6, i64 15, i64 1, ptr %18)
  %20 = tail call i32 (ptr, ...) @printf(ptr noundef nonnull dereferenceable(1) @.str.7, i32 noundef %11, i32 noundef 1)
  br label %.thread99.sink.split

21:                                               ; preds = %10
  %22 = tail call i32 @wolfSSL_CTX_use_certificate_chain_file_format(ptr noundef nonnull %2, ptr noundef nonnull @.str.985, i32 noundef 1) #27
  %23 = icmp eq i32 %22, 1
  br i1 %23, label %.thread99, label %24

24:                                               ; preds = %21
  %25 = tail call i32 (ptr, ...) @printf(ptr noundef nonnull dereferenceable(1) @.str, ptr noundef nonnull @.str.1, i32 noundef 5082)
  %26 = load ptr, ptr @stdout, align 8, !tbaa !22
  %27 = tail call i64 @fwrite(ptr nonnull @.str.2, i64 15, i64 1, ptr %26)
  %28 = tail call i32 (ptr, ...) @printf(ptr noundef nonnull dereferenceable(1) @.str.3, ptr noundef nonnull @.str.1928, ptr noundef nonnull @.str.993)
  %29 = load ptr, ptr @stdout, align 8, !tbaa !22
  %30 = tail call i64 @fwrite(ptr nonnull @.str.6, i64 15, i64 1, ptr %29)
  %31 = tail call i32 (ptr, ...) @printf(ptr noundef nonnull dereferenceable(1) @.str.7, i32 noundef %22, i32 noundef 1)
  br label %.thread99.sink.split

.thread99.sink.split:                             ; preds = %24, %13, %.thread
  %32 = load ptr, ptr @stdout, align 8, !tbaa !22
  %33 = tail call i64 @fwrite(ptr nonnull @.str.8, i64 2, i64 1, ptr %32)
  %34 = load ptr, ptr @stdout, align 8, !tbaa !22
  %35 = tail call i32 @fflush(ptr noundef %34)
  br label %.thread99

.thread99:                                        ; preds = %.thread99.sink.split, %21
  %.4 = phi i32 [ 1, %21 ], [ 0, %.thread99.sink.split ]
  tail call void @wolfSSL_CTX_free(ptr noundef %2) #27
  ret i32 %.4
}